Certificate:
    Data:
        Version: 3 (0x2)
        Serial Number:
            d9:f5:3c:54:1f:00:85:d0:d7:04:94:8c:d0:a6:88:da
        Signature Algorithm: sha256WithRSAEncryption
        Issuer: CN=test
        Validity
            Not Before: Sep  3 16:34:43 2025 GMT
            Not After : Dec  7 16:34:43 2027 GMT
        Subject: CN=localhost
        Subject Public Key Info:
            Public Key Algorithm: rsaEncryption
                RSA Public-Key: (2048 bit)
                Modulus:
                    00:a6:15:cb:fb:01:2c:07:de:73:6f:8f:e4:79:3b:
                    3b:8a:e4:90:f7:4f:f4:5b:b4:f0:89:1e:90:5c:67:
                    1c:9f:8c:22:7c:3a:87:8e:f6:8f:72:cf:32:72:48:
                    47:86:57:39:cb:af:12:1a:32:76:34:13:2b:45:0c:
                    bc:fa:b1:7a:f9:8f:52:17:7c:b3:3f:4c:9e:86:ac:
                    97:99:61:91:28:70:60:74:57:f0:f3:bd:aa:e5:b6:
                    c5:7e:9c:61:ac:48:84:67:f7:8c:ca:b8:1e:5f:90:
                    2c:e7:85:33:d8:57:c5:68:3d:2a:15:08:e0:94:6a:
                    9c:47:ab:eb:c3:5e:5d:70:a2:0b:69:8a:38:57:04:
                    14:c8:cb:44:8f:56:37:1b:f9:39:47:bb:eb:e2:fe:
                    f0:96:77:e0:d5:83:c7:f3:9d:cc:cf:0a:03:fe:fe:
                    c3:3e:53:bb:c4:b1:6e:82:27:60:ab:1c:6e:79:41:
                    b1:b2:5c:46:1c:f0:68:8a:0f:36:fd:eb:d7:16:98:
                    9a:4e:8e:62:9a:d9:90:22:5a:ab:9e:3a:22:05:63:
                    8c:d5:59:35:27:39:58:c3:cf:c7:34:0c:6e:32:34:
                    48:69:a5:ad:f5:58:d3:41:f1:59:a2:83:ec:ff:f5:
                    13:ee:f6:15:6e:62:49:76:a8:fd:7d:9d:6d:fe:f8:
                    7a:09
                Exponent: 65537 (0x10001)
        X509v3 extensions:
            X509v3 Basic Constraints: 
                CA:FALSE
            X509v3 Subject Key Identifier: 
                0C:AC:8B:B4:4C:75:DF:6E:A8:FD:08:35:40:9B:30:23:5E:3A:2E:4D
            X509v3 Authority Key Identifier: 
                keyid:3F:01:AA:D0:B1:EF:BE:02:B8:27:D5:C1:F1:BD:7A:06:F1:6F:8F:73
                DirName:/CN=test
                serial:72:A1:E3:DA:E4:BC:70:AF:52:61:08:89:9A:82:11:FF:B7:D4:D0:FA

            X509v3 Extended Key Usage: 
                TLS Web Server Authentication
            X509v3 Key Usage: 
                Digital Signature, Key Encipherment
            X509v3 Subject Alternative Name: 
                DNS:localhost
    Signature Algorithm: sha256WithRSAEncryption
         0b:ae:62:ed:32:35:77:64:00:44:01:30:ed:eb:e1:21:42:9c:
         05:ef:af:1d:f3:0f:58:58:e2:0c:14:1a:04:06:79:e8:f6:da:
         bc:60:90:fd:08:90:0a:bd:a3:95:b2:66:b9:3d:9b:0a:14:87:
         b0:c1:16:c6:7c:4a:4f:ef:d5:be:bd:85:bc:5a:cf:e4:a0:dd:
         3e:f0:c6:1e:2f:1a:01:c8:91:0e:16:59:aa:44:11:fe:76:69:
         ba:31:ba:56:7e:03:ba:9d:cb:59:fa:98:b3:77:a2:f8:f1:d1:
         4f:ba:72:0a:90:00:b2:a9:28:11:8e:ee:9a:be:29:6b:64:18:
         65:8d:8d:23:84:61:68:ed:33:57:04:06:69:48:c0:84:51:fd:
         bf:c5:b3:cd:3f:33:d7:94:6c:71:10:bf:7e:05:35:c9:31:93:
         bb:c0:d7:4e:58:eb:93:a9:bc:13:06:d1:60:44:01:12:62:7f:
         40:65:21:f3:ce:6d:67:54:3e:46:b9:b0:bc:ce:3b:a8:eb:d3:
         2e:46:57:45:95:b0:83:f5:b0:02:8a:ff:16:bd:bd:f4:c6:6b:
         d4:a3:a8:57:96:a2:08:13:ff:49:54:b6:8c:c4:24:7b:86:ec:
         3c:0c:cf:5d:dd:a8:f1:b3:0e:ed:40:bd:93:26:98:e2:22:38:
         27:eb:c8:cd
-----BEGIN CERTIFICATE-----
MIIDYDCCAkigAwIBAgIRANn1PFQfAIXQ1wSUjNCmiNowDQYJKoZIhvcNAQELBQAw
DzENMAsGA1UEAwwEdGVzdDAeFw0yNTA5MDMxNjM0NDNaFw0yNzEyMDcxNjM0NDNa
MBQxEjAQBgNVBAMMCWxvY2FsaG9zdDCCASIwDQYJKoZIhvcNAQEBBQADggEPADCC
AQoCggEBAKYVy/sBLAfec2+P5Hk7O4rkkPdP9Fu08IkekFxnHJ+MInw6h472j3LP
MnJIR4ZXOcuvEhoydjQTK0UMvPqxevmPUhd8sz9Mnoasl5lhkShwYHRX8PO9quW2
xX6cYaxIhGf3jMq4Hl+QLOeFM9hXxWg9KhUI4JRqnEer68NeXXCiC2mKOFcEFMjL
RI9WNxv5OUe76+L+8JZ34NWDx/OdzM8KA/7+wz5Tu8SxboInYKscbnlBsbJcRhzw
aIoPNv3r1xaYmk6OYprZkCJaq546IgVjjNVZNSc5WMPPxzQMbjI0SGmlrfVY00Hx
WaKD7P/1E+72FW5iSXao/X2dbf74egkCAwEAAaOBsTCBrjAJBgNVHRMEAjAAMB0G
A1UdDgQWBBQMrIu0THXfbqj9CDVAmzAjXjouTTBKBgNVHSMEQzBBgBQ/AarQse++
Argn1cHxvXoG8W+Pc6ETpBEwDzENMAsGA1UEAwwEdGVzdIIUcqHj2uS8cK9SYQiJ
moIR/7fU0PowEwYDVR0lBAwwCgYIKwYBBQUHAwEwCwYDVR0PBAQDAgWgMBQGA1Ud
EQQNMAuCCWxvY2FsaG9zdDANBgkqhkiG9w0BAQsFAAOCAQEAC65i7TI1d2QARAEw
7evhIUKcBe+vHfMPWFjiDBQaBAZ56PbavGCQ/QiQCr2jlbJmuT2bChSHsMEWxnxK
T+/Vvr2FvFrP5KDdPvDGHi8aAciRDhZZqkQR/nZpujG6Vn4Dup3LWfqYs3ei+PHR
T7pyCpAAsqkoEY7umr4pa2QYZY2NI4RhaO0zVwQGaUjAhFH9v8WzzT8z15RscRC/
fgU1yTGTu8DXTljrk6m8EwbRYEQBEmJ/QGUh885tZ1Q+RrmwvM47qOvTLkZXRZWw
g/WwAor/Fr299MZr1KOoV5aiCBP/SVS2jMQke4bsPAzPXd2o8bMO7UC9kyaY4iI4
J+vIzQ==
-----END CERTIFICATE-----
