Certificate:
    Data:
        Version: 3 (0x2)
        Serial Number:
            34:aa:b5:92:9e:45:f5:a8:21:e7:72:db:bb:0f:25:68
        Signature Algorithm: sha256WithRSAEncryption
        Issuer: CN=test
        Validity
            Not Before: Sep  3 16:34:51 2025 GMT
            Not After : Dec  7 16:34:51 2027 GMT
        Subject: CN=test
        Subject Public Key Info:
            Public Key Algorithm: rsaEncryption
                RSA Public-Key: (2048 bit)
                Modulus:
                    00:bb:03:97:b2:e4:57:a3:5c:52:25:a2:e5:3e:41:
                    75:0f:95:c0:c3:94:f2:08:6c:0d:31:b9:b5:2c:04:
                    13:5c:42:c1:f7:79:dd:4a:e1:8b:f6:89:5f:ff:eb:
                    0c:7b:46:4d:8f:2b:65:d9:81:a3:f5:f2:d4:46:cb:
                    c0:84:0d:55:ac:dc:15:51:ae:00:60:8b:a1:87:50:
                    df:b8:1a:34:7f:3b:67:ba:02:2c:8f:9f:39:06:68:
                    9c:f3:35:93:5a:f2:16:a1:21:df:87:63:5e:40:c6:
                    ea:05:bf:f3:fe:21:10:4c:78:6e:11:60:2f:b8:a4:
                    08:69:1a:82:cb:64:7f:3f:ea:af:b0:85:c5:fc:3a:
                    8f:64:5c:39:61:12:5f:73:4a:9a:af:be:75:21:f4:
                    9d:be:9c:59:12:72:19:59:96:5b:92:24:95:64:2d:
                    de:b5:8a:a7:79:91:60:8d:57:63:7d:5d:8b:5f:83:
                    38:54:8b:ad:49:11:48:1d:dd:d5:cb:a3:07:f7:a4:
                    b7:b6:00:ae:40:cf:37:87:22:57:33:a0:57:3c:d7:
                    6f:0d:98:e7:99:4e:d4:ff:44:5d:a3:4e:70:6e:3f:
                    21:d1:35:a3:d8:96:51:0a:9c:66:ba:c2:61:17:c3:
                    3f:f6:89:da:36:bc:88:4d:51:c4:1e:88:22:52:b8:
                    52:3b
                Exponent: 65537 (0x10001)
        X509v3 extensions:
            X509v3 Basic Constraints: 
                CA:FALSE
            X509v3 Subject Key Identifier: 
                CE:19:19:52:AF:6C:46:95:D9:EE:D6:6E:5F:C3:43:64:28:0B:AF:72
            X509v3 Authority Key Identifier: 
                keyid:3F:01:AA:D0:B1:EF:BE:02:B8:27:D5:C1:F1:BD:7A:06:F1:6F:8F:73
                DirName:/CN=test
                serial:72:A1:E3:DA:E4:BC:70:AF:52:61:08:89:9A:82:11:FF:B7:D4:D0:FA

            X509v3 Extended Key Usage: 
                TLS Web Client Authentication
            X509v3 Key Usage: 
                Digital Signature
    Signature Algorithm: sha256WithRSAEncryption
         5b:43:e2:c9:cc:5a:28:5a:15:35:08:0e:9b:ab:a5:bf:db:06:
         ab:a4:61:20:7d:0f:9b:65:3a:12:4e:2e:b4:49:8d:3e:73:f9:
         94:0e:67:aa:b8:72:88:dc:10:13:fb:5c:eb:0e:d5:39:9d:93:
         39:01:8b:4e:87:27:17:95:57:62:3a:f4:31:04:9c:6c:4c:ec:
         e2:49:a5:5d:ec:98:7b:d4:eb:9f:d9:63:22:49:40:df:bb:78:
         ee:fe:24:3e:f1:ae:9c:73:e1:28:42:c4:24:df:5a:46:01:64:
         ba:76:42:c3:c6:19:c1:7c:e8:0d:a6:4b:5e:70:a4:99:30:ea:
         de:b4:4b:38:90:29:3b:0d:8e:5d:ef:34:87:e1:75:63:b7:77:
         2c:e1:ea:33:d8:24:9d:a5:f3:33:e1:07:c6:48:46:bd:78:aa:
         1e:cb:c7:e6:ed:94:1b:e6:dc:e2:89:64:4e:19:5d:83:2d:47:
         b8:a5:d6:3b:18:5e:e2:6e:41:f2:c4:ce:b9:89:89:b0:36:dc:
         c3:ce:7e:a3:d9:c6:da:c8:d3:39:a5:e7:58:9a:29:57:7e:cf:
         27:f1:55:e8:94:ca:7f:c9:67:17:f2:df:5a:d8:b2:7c:df:be:
         41:d9:94:e2:f4:bf:65:79:bc:39:bb:73:eb:5c:82:d6:03:f0:
         cf:a5:e5:20
-----BEGIN CERTIFICATE-----
MIIDRDCCAiygAwIBAgIQNKq1kp5F9agh53Lbuw8laDANBgkqhkiG9w0BAQsFADAP
MQ0wCwYDVQQDDAR0ZXN0MB4XDTI1MDkwMzE2MzQ1MVoXDTI3MTIwNzE2MzQ1MVow
DzENMAsGA1UEAwwEdGVzdDCCASIwDQYJKoZIhvcNAQEBBQADggEPADCCAQoCggEB
ALsDl7LkV6NcUiWi5T5BdQ+VwMOU8ghsDTG5tSwEE1xCwfd53Urhi/aJX//rDHtG
TY8rZdmBo/Xy1EbLwIQNVazcFVGuAGCLoYdQ37gaNH87Z7oCLI+fOQZonPM1k1ry
FqEh34djXkDG6gW/8/4hEEx4bhFgL7ikCGkagstkfz/qr7CFxfw6j2RcOWESX3NK
mq++dSH0nb6cWRJyGVmWW5IklWQt3rWKp3mRYI1XY31di1+DOFSLrUkRSB3d1cuj
B/ekt7YArkDPN4ciVzOgVzzXbw2Y55lO1P9EXaNOcG4/IdE1o9iWUQqcZrrCYRfD
P/aJ2ja8iE1RxB6IIlK4UjsCAwEAAaOBmzCBmDAJBgNVHRMEAjAAMB0GA1UdDgQW
BBTOGRlSr2xGldnu1m5fw0NkKAuvcjBKBgNVHSMEQzBBgBQ/AarQse++Argn1cHx
vXoG8W+Pc6ETpBEwDzENMAsGA1UEAwwEdGVzdIIUcqHj2uS8cK9SYQiJmoIR/7fU
0PowEwYDVR0lBAwwCgYIKwYBBQUHAwIwCwYDVR0PBAQDAgeAMA0GCSqGSIb3DQEB
CwUAA4IBAQBbQ+LJzFooWhU1CA6bq6W/2warpGEgfQ+bZToSTi60SY0+c/mUDmeq
uHKI3BAT+1zrDtU5nZM5AYtOhycXlVdiOvQxBJxsTOziSaVd7Jh71Ouf2WMiSUDf
u3ju/iQ+8a6cc+EoQsQk31pGAWS6dkLDxhnBfOgNpktecKSZMOretEs4kCk7DY5d
7zSH4XVjt3cs4eoz2CSdpfMz4QfGSEa9eKoey8fm7ZQb5tziiWROGV2DLUe4pdY7
GF7ibkHyxM65iYmwNtzDzn6j2cbayNM5pedYmilXfs8n8VXolMp/yWcX8t9a2LJ8
375B2ZTi9L9lebw5u3PrXILWA/DPpeUg
-----END CERTIFICATE-----
